target datalayout = "e-m:e-p270:32:32-p271:32:32-p272:64:64-i64:64-i128:128-f80:128-n8:16:32:64-S128"
target triple = "x86_64-pc-linux-gnu"

@.str.514 = private unnamed_addr constant [42 x i8] c"Wi-Fi Neighbor Awareness Networking (NAN)\00", align 1
@.str.515 = private unnamed_addr constant [10 x i8] c"Wi-Fi NAN\00", align 1
@.str.516 = private unnamed_addr constant [9 x i8] c"wifi_nan\00", align 1
@proto_nan = internal global i32 0, align 4
@.str.517 = private unnamed_addr constant [11 x i8] c"nan.action\00", align 1
@nan_act_handle = internal global ptr null, align 8
@.str.518 = private unnamed_addr constant [22 x i8] c"nan.service_discovery\00", align 1
@nan_disco_handle = internal global ptr null, align 8
@.str.519 = private unnamed_addr constant [11 x i8] c"nan.beacon\00", align 1
@nan_beacon_handle = internal global ptr null, align 8
@.str.520 = private unnamed_addr constant [16 x i8] c"wlan.tag.number\00", align 1
@ie_handle_table = internal global ptr null, align 8

; Function Attrs: null_pointer_is_valid sspstrong uwtable
define hidden void @proto_register_nan() #0 {
  %1 = alloca ptr, align 8
  %2 = call i32 @proto_register_protocol(ptr noundef @.str.514, ptr noundef @.str.515, ptr noundef @.str.516)
  store i32 %2, ptr @proto_nan, align 4
  %3 = load i32, ptr @proto_nan, align 4
  call void @proto_register_field_array(i32 noundef %3, ptr noundef @proto_register_nan.hf, i32 noundef 267)
  call void @proto_register_subtree_array(ptr noundef @proto_register_nan.ett, i32 noundef 50)
  %4 = load i32, ptr @proto_nan, align 4
  %5 = call ptr @register_dissector(ptr noundef @.str.517, ptr noundef @dissect_nan_action, i32 noundef %4)
  store ptr %5, ptr @nan_act_handle, align 8
  %6 = load i32, ptr @proto_nan, align 4
  %7 = call ptr @register_dissector(ptr noundef @.str.518, ptr noundef @dissect_nan_service_discovery, i32 noundef %6)
  store ptr %7, ptr @nan_disco_handle, align 8
  %8 = load i32, ptr @proto_nan, align 4
  %9 = call ptr @register_dissector(ptr noundef @.str.519, ptr noundef @dissect_nan_beacon, i32 noundef %8)
  store ptr %9, ptr @nan_beacon_handle, align 8
  call void @llvm.lifetime.start.p0(i64 8, ptr %1) #5
  %10 = load i32, ptr @proto_nan, align 4
  %11 = call ptr @expert_register_protocol(i32 noundef %10)
  store ptr %11, ptr %1, align 8
  %12 = load ptr, ptr %1, align 8
  call void @expert_register_field_array(ptr noundef %12, ptr noundef @proto_register_nan.ei, i32 noundef 6)
  %13 = call ptr @find_dissector_table(ptr noundef @.str.520)
  store ptr %13, ptr @ie_handle_table, align 8
  call void @llvm.lifetime.end.p0(i64 8, ptr %1) #5
  ret void
}