; Function Attrs: null_pointer_is_valid sspstrong uwtable
define hidden void @proto_register_nan() local_unnamed_addr #0 {
  %1 = tail call i32 @proto_register_protocol(ptr noundef nonnull @.str.514, ptr noundef nonnull @.str.515, ptr noundef nonnull @.str.516)
  store i32 %1, ptr @proto_nan, align 4
  tail call void @proto_register_field_array(i32 noundef %1, ptr noundef nonnull @proto_register_nan.hf, i32 noundef 267)
  tail call void @proto_register_subtree_array(ptr noundef nonnull @proto_register_nan.ett, i32 noundef 50)
  %2 = load i32, ptr @proto_nan, align 4
  %3 = tail call ptr @register_dissector(ptr noundef nonnull @.str.517, ptr noundef nonnull @dissect_nan_action, i32 noundef %2)
  store ptr %3, ptr @nan_act_handle, align 8
  %4 = load i32, ptr @proto_nan, align 4
  %5 = tail call ptr @register_dissector(ptr noundef nonnull @.str.518, ptr noundef nonnull @dissect_nan_service_discovery, i32 noundef %4)
  store ptr %5, ptr @nan_disco_handle, align 8
  %6 = load i32, ptr @proto_nan, align 4
  %7 = tail call ptr @register_dissector(ptr noundef nonnull @.str.519, ptr noundef nonnull @dissect_nan_beacon, i32 noundef %6)
  store ptr %7, ptr @nan_beacon_handle, align 8
  %8 = load i32, ptr @proto_nan, align 4
  %9 = tail call ptr @expert_register_protocol(i32 noundef %8)
  tail call void @expert_register_field_array(ptr noundef %9, ptr noundef nonnull @proto_register_nan.ei, i32 noundef 6)
  %10 = tail call ptr @find_dissector_table(ptr noundef nonnull @.str.520)
  store ptr %10, ptr @ie_handle_table, align 8
  ret void
}